target datalayout = "e-m:e-p270:32:32-p271:32:32-p272:64:64-i64:64-i128:128-f80:128-n8:16:32:64-S128"
target triple = "x86_64-pc-linux-gnu"

; Function Attrs: nounwind sspstrong uwtable
define internal zeroext i1 @pm_unicode_codepoint_match(i32 noundef %0, ptr noundef %1, i64 noundef %2) #0 {
  %4 = alloca i1, align 1
  %5 = alloca i32, align 4
  %6 = alloca ptr, align 8
  %7 = alloca i64, align 8
  %8 = alloca i64, align 8
  %9 = alloca i64, align 8
  %10 = alloca i64, align 8
  %11 = alloca i32, align 4
  store i32 %0, ptr %5, align 4, !tbaa !14
  store ptr %1, ptr %6, align 8, !tbaa !22
  store i64 %2, ptr %7, align 8, !tbaa !12
  call void @llvm.lifetime.start.p0(i64 8, ptr %8) #3
  store i64 0, ptr %8, align 8, !tbaa !12
  call void @llvm.lifetime.start.p0(i64 8, ptr %9) #3
  %12 = load i64, ptr %7, align 8, !tbaa !12
  store i64 %12, ptr %9, align 8, !tbaa !12
  br label %13

13:                                               ; preds = %61, %3
  %14 = load i64, ptr %8, align 8, !tbaa !12
  %15 = load i64, ptr %9, align 8, !tbaa !12
  %16 = icmp ult i64 %14, %15
  br i1 %16, label %17, label %62

17:                                               ; preds = %13
  call void @llvm.lifetime.start.p0(i64 8, ptr %10) #3
  %18 = load i64, ptr %8, align 8, !tbaa !12
  %19 = load i64, ptr %9, align 8, !tbaa !12
  %20 = load i64, ptr %8, align 8, !tbaa !12
  %21 = sub i64 %19, %20
  %22 = udiv i64 %21, 2
  %23 = add i64 %18, %22
  store i64 %23, ptr %10, align 8, !tbaa !12
  %24 = load i64, ptr %10, align 8, !tbaa !12
  %25 = urem i64 %24, 2
  %26 = icmp ne i64 %25, 0
  br i1 %26, label %27, label %30

27:                                               ; preds = %17
  %28 = load i64, ptr %10, align 8, !tbaa !12
  %29 = add i64 %28, -1
  store i64 %29, ptr %10, align 8, !tbaa !12
  br label %30

30:                                               ; preds = %27, %17
  %31 = load i32, ptr %5, align 4, !tbaa !14
  %32 = load ptr, ptr %6, align 8, !tbaa !22
  %33 = load i64, ptr %10, align 8, !tbaa !12
  %34 = getelementptr i32, ptr %32, i64 %33
  %35 = load i32, ptr %34, align 4, !tbaa !14
  %36 = icmp uge i32 %31, %35
  br i1 %36, label %37, label %46

37:                                               ; preds = %30
  %38 = load i32, ptr %5, align 4, !tbaa !14
  %39 = load ptr, ptr %6, align 8, !tbaa !22
  %40 = load i64, ptr %10, align 8, !tbaa !12
  %41 = add i64 %40, 1
  %42 = getelementptr i32, ptr %39, i64 %41
  %43 = load i32, ptr %42, align 4, !tbaa !14
  %44 = icmp ule i32 %38, %43
  br i1 %44, label %45, label %46

45:                                               ; preds = %37
  store i1 true, ptr %4, align 1
  store i32 1, ptr %11, align 4
  br label %59

46:                                               ; preds = %37, %30
  %47 = load i32, ptr %5, align 4, !tbaa !14
  %48 = load ptr, ptr %6, align 8, !tbaa !22
  %49 = load i64, ptr %10, align 8, !tbaa !12
  %50 = getelementptr i32, ptr %48, i64 %49
  %51 = load i32, ptr %50, align 4, !tbaa !14
  %52 = icmp ult i32 %47, %51
  br i1 %52, label %53, label %55

53:                                               ; preds = %46
  %54 = load i64, ptr %10, align 8, !tbaa !12
  store i64 %54, ptr %9, align 8, !tbaa !12
  br label %58

55:                                               ; preds = %46
  %56 = load i64, ptr %10, align 8, !tbaa !12
  %57 = add i64 %56, 2
  store i64 %57, ptr %8, align 8, !tbaa !12
  br label %58

58:                                               ; preds = %55, %53
  store i32 0, ptr %11, align 4
  br label %59

59:                                               ; preds = %58, %45
  call void @llvm.lifetime.end.p0(i64 8, ptr %10) #3
  %60 = load i32, ptr %11, align 4
  switch i32 %60, label %63 [
    i32 0, label %61
  ]

61:                                               ; preds = %59
  br label %13, !llvm.loop !24

62:                                               ; preds = %13
  store i1 false, ptr %4, align 1
  store i32 1, ptr %11, align 4
  br label %63

63:                                               ; preds = %62, %59
  call void @llvm.lifetime.end.p0(i64 8, ptr %9) #3
  call void @llvm.lifetime.end.p0(i64 8, ptr %8) #3
  %64 = load i1, ptr %4, align 1
  ret i1 %64
}

; Function Attrs: nounwind sspstrong uwtable
define internal i32 @pm_utf_8_codepoint(ptr noundef %0, i64 noundef %1, ptr noundef %2) #0 {
  %4 = alloca i32, align 4
  %5 = alloca ptr, align 8
  %6 = alloca i64, align 8
  %7 = alloca ptr, align 8
  %8 = alloca i64, align 8
  %9 = alloca i32, align 4
  %10 = alloca i32, align 4
  %11 = alloca i64, align 8
  %12 = alloca i32, align 4
  %13 = alloca i32, align 4
  %14 = alloca i32, align 4
  store ptr %0, ptr %5, align 8, !tbaa !7
  store i64 %1, ptr %6, align 8, !tbaa !12
  store ptr %2, ptr %7, align 8, !tbaa !19
  call void @llvm.lifetime.start.p0(i64 8, ptr %8) #3
  %15 = load i64, ptr %6, align 8, !tbaa !12
  %16 = icmp sgt i64 %15, 4
  br i1 %16, label %17, label %18

17:                                               ; preds = %3
  br label %20

18:                                               ; preds = %3
  %19 = load i64, ptr %6, align 8, !tbaa !12
  br label %20

20:                                               ; preds = %18, %17
  %21 = phi i64 [ 4, %17 ], [ %19, %18 ]
  store i64 %21, ptr %8, align 8, !tbaa !12
  call void @llvm.lifetime.start.p0(i64 4, ptr %9) #3
  call void @llvm.lifetime.start.p0(i64 4, ptr %10) #3
  store i32 0, ptr %10, align 4, !tbaa !14
  call void @llvm.lifetime.start.p0(i64 8, ptr %11) #3
  store i64 0, ptr %11, align 8, !tbaa !12
  br label %22

22:                                               ; preds = %73, %20
  %23 = load i64, ptr %11, align 8, !tbaa !12
  %24 = load i64, ptr %8, align 8, !tbaa !12
  %25 = icmp ult i64 %23, %24
  br i1 %25, label %27, label %26

26:                                               ; preds = %22
  store i32 2, ptr %12, align 4
  br label %76

27:                                               ; preds = %22
  call void @llvm.lifetime.start.p0(i64 4, ptr %13) #3
  %28 = load ptr, ptr %5, align 8, !tbaa !7
  %29 = load i64, ptr %11, align 8, !tbaa !12
  %30 = getelementptr i8, ptr %28, i64 %29
  %31 = load i8, ptr %30, align 1, !tbaa !16
  %32 = zext i8 %31 to i32
  store i32 %32, ptr %13, align 4, !tbaa !14
  call void @llvm.lifetime.start.p0(i64 4, ptr %14) #3
  %33 = load i32, ptr %13, align 4, !tbaa !14
  %34 = zext i32 %33 to i64
  %35 = getelementptr [400 x i8], ptr @pm_utf_8_dfa, i64 0, i64 %34
  %36 = load i8, ptr %35, align 1, !tbaa !16
  %37 = zext i8 %36 to i32
  store i32 %37, ptr %14, align 4, !tbaa !14
  %38 = load i32, ptr %10, align 4, !tbaa !14
  %39 = icmp ne i32 %38, 0
  br i1 %39, label %40, label %46

40:                                               ; preds = %27
  %41 = load i32, ptr %13, align 4, !tbaa !14
  %42 = and i32 %41, 63
  %43 = load i32, ptr %9, align 4, !tbaa !14
  %44 = shl i32 %43, 6
  %45 = or i32 %42, %44
  br label %51

46:                                               ; preds = %27
  %47 = load i32, ptr %14, align 4, !tbaa !14
  %48 = lshr i32 255, %47
  %49 = load i32, ptr %13, align 4, !tbaa !14
  %50 = and i32 %48, %49
  br label %51

51:                                               ; preds = %46, %40
  %52 = phi i32 [ %45, %40 ], [ %50, %46 ]
  store i32 %52, ptr %9, align 4, !tbaa !14
  %53 = load i32, ptr %10, align 4, !tbaa !14
  %54 = mul i32 %53, 16
  %55 = add i32 256, %54
  %56 = load i32, ptr %14, align 4, !tbaa !14
  %57 = add i32 %55, %56
  %58 = zext i32 %57 to i64
  %59 = getelementptr [400 x i8], ptr @pm_utf_8_dfa, i64 0, i64 %58
  %60 = load i8, ptr %59, align 1, !tbaa !16
  %61 = zext i8 %60 to i32
  store i32 %61, ptr %10, align 4, !tbaa !14
  %62 = load i32, ptr %10, align 4, !tbaa !14
  %63 = icmp eq i32 %62, 0
  br i1 %63, label %64, label %69

64:                                               ; preds = %51
  %65 = load i64, ptr %11, align 8, !tbaa !12
  %66 = add i64 %65, 1
  %67 = load ptr, ptr %7, align 8, !tbaa !19
  store i64 %66, ptr %67, align 8, !tbaa !12
  %68 = load i32, ptr %9, align 4, !tbaa !14
  store i32 %68, ptr %4, align 4
  store i32 1, ptr %12, align 4
  br label %70

69:                                               ; preds = %51
  store i32 0, ptr %12, align 4
  br label %70

70:                                               ; preds = %69, %64
  call void @llvm.lifetime.end.p0(i64 4, ptr %14) #3
  call void @llvm.lifetime.end.p0(i64 4, ptr %13) #3
  %71 = load i32, ptr %12, align 4
  switch i32 %71, label %76 [
    i32 0, label %72
  ]

72:                                               ; preds = %70
  br label %73

73:                                               ; preds = %72
  %74 = load i64, ptr %11, align 8, !tbaa !12
  %75 = add i64 %74, 1
  store i64 %75, ptr %11, align 8, !tbaa !12
  br label %22, !llvm.loop !21

76:                                               ; preds = %70, %26
  call void @llvm.lifetime.end.p0(i64 8, ptr %11) #3
  %77 = load i32, ptr %12, align 4
  switch i32 %77, label %80 [
    i32 2, label %78
  ]

78:                                               ; preds = %76
  %79 = load ptr, ptr %7, align 8, !tbaa !19
  store i64 0, ptr %79, align 8, !tbaa !12
  store i32 0, ptr %4, align 4
  store i32 1, ptr %12, align 4
  br label %80

80:                                               ; preds = %78, %76
  call void @llvm.lifetime.end.p0(i64 4, ptr %10) #3
  call void @llvm.lifetime.end.p0(i64 4, ptr %9) #3
  call void @llvm.lifetime.end.p0(i64 8, ptr %8) #3
  %81 = load i32, ptr %4, align 4
  ret i32 %81
}

; Function Attrs: nounwind sspstrong uwtable
define hidden i64 @pm_encoding_utf_8_alnum_char(ptr noundef %0, i64 noundef %1) #0 {
  %3 = alloca i64, align 8
  %4 = alloca ptr, align 8
  %5 = alloca i64, align 8
  %6 = alloca i64, align 8
  %7 = alloca i32, align 4
  %8 = alloca i32, align 4
  store ptr %0, ptr %4, align 8, !tbaa !7
  store i64 %1, ptr %5, align 8, !tbaa !12
  %9 = load ptr, ptr %4, align 8, !tbaa !7
  %10 = load i8, ptr %9, align 1, !tbaa !16
  %11 = zext i8 %10 to i32
  %12 = icmp slt i32 %11, 128
  br i1 %12, label %13, label %24

13:                                               ; preds = %2
  %14 = load ptr, ptr %4, align 8, !tbaa !7
  %15 = load i8, ptr %14, align 1, !tbaa !16
  %16 = zext i8 %15 to i64
  %17 = getelementptr [256 x i8], ptr @pm_encoding_unicode_table, i64 0, i64 %16
  %18 = load i8, ptr %17, align 1, !tbaa !16
  %19 = zext i8 %18 to i32
  %20 = and i32 %19, 2
  %21 = icmp ne i32 %20, 0
  %22 = select i1 %21, i32 1, i32 0
  %23 = sext i32 %22 to i64
  store i64 %23, ptr %3, align 8
  br label %53

24:                                               ; preds = %2
  call void @llvm.lifetime.start.p0(i64 8, ptr %6) #3
  call void @llvm.lifetime.start.p0(i64 4, ptr %7) #3
  %25 = load ptr, ptr %4, align 8, !tbaa !7
  %26 = load i64, ptr %5, align 8, !tbaa !12
  %27 = call i32 @pm_utf_8_codepoint(ptr noundef %25, i64 noundef %26, ptr noundef %6)
  store i32 %27, ptr %7, align 4, !tbaa !14
  %28 = load i32, ptr %7, align 4, !tbaa !14
  %29 = icmp ule i32 %28, 255
  br i1 %29, label %30, label %44

30:                                               ; preds = %24
  %31 = load i32, ptr %7, align 4, !tbaa !14
  %32 = trunc i32 %31 to i8
  %33 = zext i8 %32 to i64
  %34 = getelementptr [256 x i8], ptr @pm_encoding_unicode_table, i64 0, i64 %33
  %35 = load i8, ptr %34, align 1, !tbaa !16
  %36 = zext i8 %35 to i32
  %37 = and i32 %36, 2
  %38 = icmp ne i32 %37, 0
  br i1 %38, label %39, label %41

39:                                               ; preds = %30
  %40 = load i64, ptr %6, align 8, !tbaa !12
  br label %42

41:                                               ; preds = %30
  br label %42

42:                                               ; preds = %41, %39
  %43 = phi i64 [ %40, %39 ], [ 0, %41 ]
  store i64 %43, ptr %3, align 8
  store i32 1, ptr %8, align 4
  br label %52

44:                                               ; preds = %24
  %45 = load i32, ptr %7, align 4, !tbaa !14
  %46 = call zeroext i1 @pm_unicode_codepoint_match(i32 noundef %45, ptr noundef @unicode_alnum_codepoints, i64 noundef 1528)
  br i1 %46, label %47, label %49

47:                                               ; preds = %44
  %48 = load i64, ptr %6, align 8, !tbaa !12
  br label %50

49:                                               ; preds = %44
  br label %50

50:                                               ; preds = %49, %47
  %51 = phi i64 [ %48, %47 ], [ 0, %49 ]
  store i64 %51, ptr %3, align 8
  store i32 1, ptr %8, align 4
  br label %52

52:                                               ; preds = %50, %42
  call void @llvm.lifetime.end.p0(i64 4, ptr %7) #3
  call void @llvm.lifetime.end.p0(i64 8, ptr %6) #3
  br label %53

53:                                               ; preds = %52, %13
  %54 = load i64, ptr %3, align 8
  ret i64 %54
}